target datalayout = "e-m:e-p270:32:32-p271:32:32-p272:64:64-i64:64-i128:128-f80:128-n8:16:32:64-S128"
target triple = "x86_64-pc-linux-gnu"

%struct.varattrib_1b = type { i8, [0 x i8] }
%struct.anon = type { i32, [0 x i8] }
%struct.inet_struct = type { i8, i8, [16 x i8] }
%struct.macaddr = type { i8, i8, i8, i8, i8, i8 }
%struct.macaddr8 = type { i8, i8, i8, i8, i8, i8, i8, i8 }

; Function Attrs: inlinehint nounwind uwtable
define internal ptr @DatumGetPointer(i64 noundef %0) #2 {
  %2 = alloca i64, align 8
  store i64 %0, ptr %2, align 8
  %3 = load i64, ptr %2, align 8
  %4 = inttoptr i64 %3 to ptr
  ret ptr %4
}

; Function Attrs: inlinehint nounwind uwtable
define internal ptr @DatumGetMacaddr8P(i64 noundef %0) #2 {
  %2 = alloca i64, align 8
  store i64 %0, ptr %2, align 8
  %3 = load i64, ptr %2, align 8
  %4 = call ptr @DatumGetPointer(i64 noundef %3)
  ret ptr %4
}

; Function Attrs: inlinehint nounwind uwtable
define internal ptr @DatumGetMacaddrP(i64 noundef %0) #2 {
  %2 = alloca i64, align 8
  store i64 %0, ptr %2, align 8
  %3 = load i64, ptr %2, align 8
  %4 = call ptr @DatumGetPointer(i64 noundef %3)
  ret ptr %4
}

; Function Attrs: inlinehint nounwind uwtable
define internal ptr @DatumGetInetPP(i64 noundef %0) #2 {
  %2 = alloca i64, align 8
  store i64 %0, ptr %2, align 8
  %3 = load i64, ptr %2, align 8
  %4 = call ptr @DatumGetPointer(i64 noundef %3)
  %5 = call ptr @pg_detoast_datum_packed(ptr noundef %4)
  ret ptr %5
}

; Function Attrs: nounwind uwtable
define dso_local double @convert_network_to_scalar(i64 noundef %0, i32 noundef %1, ptr noundef %2) #0 {
  %4 = alloca double, align 8
  %5 = alloca i64, align 8
  %6 = alloca i32, align 4
  %7 = alloca ptr, align 8
  %8 = alloca ptr, align 8
  %9 = alloca i32, align 4
  %10 = alloca double, align 8
  %11 = alloca i32, align 4
  %12 = alloca ptr, align 8
  %13 = alloca double, align 8
  %14 = alloca ptr, align 8
  %15 = alloca double, align 8
  store i64 %0, ptr %5, align 8
  store i32 %1, ptr %6, align 4
  store ptr %2, ptr %7, align 8
  %16 = load i32, ptr %6, align 4
  switch i32 %16, label %195 [
    i32 869, label %17
    i32 650, label %17
    i32 829, label %99
    i32 774, label %141
  ]

17:                                               ; preds = %3, %3
  call void @llvm.lifetime.start.p0(i64 8, ptr %8) #8
  %18 = load i64, ptr %5, align 8
  %19 = call ptr @DatumGetInetPP(i64 noundef %18)
  store ptr %19, ptr %8, align 8
  call void @llvm.lifetime.start.p0(i64 4, ptr %9) #8
  call void @llvm.lifetime.start.p0(i64 8, ptr %10) #8
  call void @llvm.lifetime.start.p0(i64 4, ptr %11) #8
  %20 = load ptr, ptr %8, align 8
  %21 = getelementptr inbounds nuw %struct.varattrib_1b, ptr %20, i32 0, i32 0
  %22 = load i8, ptr %21, align 1
  %23 = zext i8 %22 to i32
  %24 = and i32 %23, 1
  %25 = icmp eq i32 %24, 1
  br i1 %25, label %26, label %30

26:                                               ; preds = %17
  %27 = load ptr, ptr %8, align 8
  %28 = getelementptr inbounds nuw %struct.varattrib_1b, ptr %27, i32 0, i32 1
  %29 = getelementptr inbounds [0 x i8], ptr %28, i64 0, i64 0
  br label %34

30:                                               ; preds = %17
  %31 = load ptr, ptr %8, align 8
  %32 = getelementptr inbounds nuw %struct.anon, ptr %31, i32 0, i32 1
  %33 = getelementptr inbounds [0 x i8], ptr %32, i64 0, i64 0
  br label %34

34:                                               ; preds = %30, %26
  %35 = phi ptr [ %29, %26 ], [ %33, %30 ]
  %36 = getelementptr inbounds nuw %struct.inet_struct, ptr %35, i32 0, i32 0
  %37 = load i8, ptr %36, align 1
  %38 = zext i8 %37 to i32
  %39 = icmp eq i32 %38, 2
  br i1 %39, label %40, label %41

40:                                               ; preds = %34
  store i32 4, ptr %9, align 4
  br label %42

41:                                               ; preds = %34
  store i32 5, ptr %9, align 4
  br label %42

42:                                               ; preds = %41, %40
  %43 = load ptr, ptr %8, align 8
  %44 = getelementptr inbounds nuw %struct.varattrib_1b, ptr %43, i32 0, i32 0
  %45 = load i8, ptr %44, align 1
  %46 = zext i8 %45 to i32
  %47 = and i32 %46, 1
  %48 = icmp eq i32 %47, 1
  br i1 %48, label %49, label %53

49:                                               ; preds = %42
  %50 = load ptr, ptr %8, align 8
  %51 = getelementptr inbounds nuw %struct.varattrib_1b, ptr %50, i32 0, i32 1
  %52 = getelementptr inbounds [0 x i8], ptr %51, i64 0, i64 0
  br label %57

53:                                               ; preds = %42
  %54 = load ptr, ptr %8, align 8
  %55 = getelementptr inbounds nuw %struct.anon, ptr %54, i32 0, i32 1
  %56 = getelementptr inbounds [0 x i8], ptr %55, i64 0, i64 0
  br label %57

57:                                               ; preds = %53, %49
  %58 = phi ptr [ %52, %49 ], [ %56, %53 ]
  %59 = getelementptr inbounds nuw %struct.inet_struct, ptr %58, i32 0, i32 0
  %60 = load i8, ptr %59, align 1
  %61 = uitofp i8 %60 to double
  store double %61, ptr %10, align 8
  store i32 0, ptr %11, align 4
  br label %62

62:                                               ; preds = %94, %57
  %63 = load i32, ptr %11, align 4
  %64 = load i32, ptr %9, align 4
  %65 = icmp slt i32 %63, %64
  br i1 %65, label %66, label %97

66:                                               ; preds = %62
  %67 = load double, ptr %10, align 8
  %68 = fmul double %67, 2.560000e+02
  store double %68, ptr %10, align 8
  %69 = load ptr, ptr %8, align 8
  %70 = getelementptr inbounds nuw %struct.varattrib_1b, ptr %69, i32 0, i32 0
  %71 = load i8, ptr %70, align 1
  %72 = zext i8 %71 to i32
  %73 = and i32 %72, 1
  %74 = icmp eq i32 %73, 1
  br i1 %74, label %75, label %79

75:                                               ; preds = %66
  %76 = load ptr, ptr %8, align 8
  %77 = getelementptr inbounds nuw %struct.varattrib_1b, ptr %76, i32 0, i32 1
  %78 = getelementptr inbounds [0 x i8], ptr %77, i64 0, i64 0
  br label %83

79:                                               ; preds = %66
  %80 = load ptr, ptr %8, align 8
  %81 = getelementptr inbounds nuw %struct.anon, ptr %80, i32 0, i32 1
  %82 = getelementptr inbounds [0 x i8], ptr %81, i64 0, i64 0
  br label %83

83:                                               ; preds = %79, %75
  %84 = phi ptr [ %78, %75 ], [ %82, %79 ]
  %85 = getelementptr inbounds nuw %struct.inet_struct, ptr %84, i32 0, i32 2
  %86 = load i32, ptr %11, align 4
  %87 = sext i32 %86 to i64
  %88 = getelementptr inbounds [16 x i8], ptr %85, i64 0, i64 %87
  %89 = load i8, ptr %88, align 1
  %90 = zext i8 %89 to i32
  %91 = sitofp i32 %90 to double
  %92 = load double, ptr %10, align 8
  %93 = fadd double %92, %91
  store double %93, ptr %10, align 8
  br label %94

94:                                               ; preds = %83
  %95 = load i32, ptr %11, align 4
  %96 = add i32 %95, 1
  store i32 %96, ptr %11, align 4
  br label %62, !llvm.loop !16

97:                                               ; preds = %62
  %98 = load double, ptr %10, align 8
  store double %98, ptr %4, align 8
  call void @llvm.lifetime.end.p0(i64 4, ptr %11) #8
  call void @llvm.lifetime.end.p0(i64 8, ptr %10) #8
  call void @llvm.lifetime.end.p0(i64 4, ptr %9) #8
  call void @llvm.lifetime.end.p0(i64 8, ptr %8) #8
  br label %197

99:                                               ; preds = %3
  call void @llvm.lifetime.start.p0(i64 8, ptr %12) #8
  %100 = load i64, ptr %5, align 8
  %101 = call ptr @DatumGetMacaddrP(i64 noundef %100)
  store ptr %101, ptr %12, align 8
  call void @llvm.lifetime.start.p0(i64 8, ptr %13) #8
  %102 = load ptr, ptr %12, align 8
  %103 = getelementptr inbounds nuw %struct.macaddr, ptr %102, i32 0, i32 0
  %104 = load i8, ptr %103, align 1
  %105 = zext i8 %104 to i32
  %106 = shl i32 %105, 16
  %107 = load ptr, ptr %12, align 8
  %108 = getelementptr inbounds nuw %struct.macaddr, ptr %107, i32 0, i32 1
  %109 = load i8, ptr %108, align 1
  %110 = zext i8 %109 to i32
  %111 = shl i32 %110, 8
  %112 = or i32 %106, %111
  %113 = load ptr, ptr %12, align 8
  %114 = getelementptr inbounds nuw %struct.macaddr, ptr %113, i32 0, i32 2
  %115 = load i8, ptr %114, align 1
  %116 = zext i8 %115 to i32
  %117 = or i32 %112, %116
  %118 = sitofp i32 %117 to double
  store double %118, ptr %13, align 8
  %119 = load double, ptr %13, align 8
  %120 = fmul double %119, 0x4170000000000000
  store double %120, ptr %13, align 8
  %121 = load ptr, ptr %12, align 8
  %122 = getelementptr inbounds nuw %struct.macaddr, ptr %121, i32 0, i32 3
  %123 = load i8, ptr %122, align 1
  %124 = zext i8 %123 to i32
  %125 = shl i32 %124, 16
  %126 = load ptr, ptr %12, align 8
  %127 = getelementptr inbounds nuw %struct.macaddr, ptr %126, i32 0, i32 4
  %128 = load i8, ptr %127, align 1
  %129 = zext i8 %128 to i32
  %130 = shl i32 %129, 8
  %131 = or i32 %125, %130
  %132 = load ptr, ptr %12, align 8
  %133 = getelementptr inbounds nuw %struct.macaddr, ptr %132, i32 0, i32 5
  %134 = load i8, ptr %133, align 1
  %135 = zext i8 %134 to i32
  %136 = or i32 %131, %135
  %137 = sitofp i32 %136 to double
  %138 = load double, ptr %13, align 8
  %139 = fadd double %138, %137
  store double %139, ptr %13, align 8
  %140 = load double, ptr %13, align 8
  store double %140, ptr %4, align 8
  call void @llvm.lifetime.end.p0(i64 8, ptr %13) #8
  call void @llvm.lifetime.end.p0(i64 8, ptr %12) #8
  br label %197

141:                                              ; preds = %3
  call void @llvm.lifetime.start.p0(i64 8, ptr %14) #8
  %142 = load i64, ptr %5, align 8
  %143 = call ptr @DatumGetMacaddr8P(i64 noundef %142)
  store ptr %143, ptr %14, align 8
  call void @llvm.lifetime.start.p0(i64 8, ptr %15) #8
  %144 = load ptr, ptr %14, align 8
  %145 = getelementptr inbounds nuw %struct.macaddr8, ptr %144, i32 0, i32 0
  %146 = load i8, ptr %145, align 1
  %147 = zext i8 %146 to i32
  %148 = shl i32 %147, 24
  %149 = load ptr, ptr %14, align 8
  %150 = getelementptr inbounds nuw %struct.macaddr8, ptr %149, i32 0, i32 1
  %151 = load i8, ptr %150, align 1
  %152 = zext i8 %151 to i32
  %153 = shl i32 %152, 16
  %154 = or i32 %148, %153
  %155 = load ptr, ptr %14, align 8
  %156 = getelementptr inbounds nuw %struct.macaddr8, ptr %155, i32 0, i32 2
  %157 = load i8, ptr %156, align 1
  %158 = zext i8 %157 to i32
  %159 = shl i32 %158, 8
  %160 = or i32 %154, %159
  %161 = load ptr, ptr %14, align 8
  %162 = getelementptr inbounds nuw %struct.macaddr8, ptr %161, i32 0, i32 3
  %163 = load i8, ptr %162, align 1
  %164 = zext i8 %163 to i32
  %165 = or i32 %160, %164
  %166 = sitofp i32 %165 to double
  store double %166, ptr %15, align 8
  %167 = load double, ptr %15, align 8
  %168 = fmul double %167, 0x41F0000000000000
  store double %168, ptr %15, align 8
  %169 = load ptr, ptr %14, align 8
  %170 = getelementptr inbounds nuw %struct.macaddr8, ptr %169, i32 0, i32 4
  %171 = load i8, ptr %170, align 1
  %172 = zext i8 %171 to i32
  %173 = shl i32 %172, 24
  %174 = load ptr, ptr %14, align 8
  %175 = getelementptr inbounds nuw %struct.macaddr8, ptr %174, i32 0, i32 5
  %176 = load i8, ptr %175, align 1
  %177 = zext i8 %176 to i32
  %178 = shl i32 %177, 16
  %179 = or i32 %173, %178
  %180 = load ptr, ptr %14, align 8
  %181 = getelementptr inbounds nuw %struct.macaddr8, ptr %180, i32 0, i32 6
  %182 = load i8, ptr %181, align 1
  %183 = zext i8 %182 to i32
  %184 = shl i32 %183, 8
  %185 = or i32 %179, %184
  %186 = load ptr, ptr %14, align 8
  %187 = getelementptr inbounds nuw %struct.macaddr8, ptr %186, i32 0, i32 7
  %188 = load i8, ptr %187, align 1
  %189 = zext i8 %188 to i32
  %190 = or i32 %185, %189
  %191 = sitofp i32 %190 to double
  %192 = load double, ptr %15, align 8
  %193 = fadd double %192, %191
  store double %193, ptr %15, align 8
  %194 = load double, ptr %15, align 8
  store double %194, ptr %4, align 8
  call void @llvm.lifetime.end.p0(i64 8, ptr %15) #8
  call void @llvm.lifetime.end.p0(i64 8, ptr %14) #8
  br label %197

195:                                              ; preds = %3
  %196 = load ptr, ptr %7, align 8
  store i8 1, ptr %196, align 1
  store double 0.000000e+00, ptr %4, align 8
  br label %197

197:                                              ; preds = %195, %141, %99, %97
  %198 = load double, ptr %4, align 8
  ret double %198
}