; Function Attrs: nounwind uwtable
define dso_local double @convert_network_to_scalar(i64 noundef %0, i32 noundef %1, ptr noundef writeonly captures(none) %2) local_unnamed_addr #0 {
  switch i32 %1, label %92 [
    i32 869, label %4
    i32 650, label %4
    i32 829, label %20
    i32 774, label %51
  ]

4:                                                ; preds = %3, %3
  %5 = inttoptr i64 %0 to ptr
  %6 = tail call ptr @pg_detoast_datum_packed(ptr noundef %5) #14
  %7 = load i8, ptr %6, align 1
  %8 = and i8 %7, 1
  %.not = icmp eq i8 %8, 0
  %.v = select i1 %.not, i64 4, i64 1
  %9 = getelementptr inbounds nuw i8, ptr %6, i64 %.v
  %10 = load i8, ptr %9, align 1
  %11 = icmp eq i8 %10, 2
  %12 = uitofp i8 %10 to double
  %13 = getelementptr inbounds nuw i8, ptr %9, i64 2
  %wide.trip.count = select i1 %11, i64 4, i64 5
  br label %14

14:                                               ; preds = %4, %14
  %indvars.iv = phi i64 [ 0, %4 ], [ %indvars.iv.next, %14 ]
  %.04247 = phi double [ %12, %4 ], [ %19, %14 ]
  %15 = fmul double %.04247, 2.560000e+02
  %16 = getelementptr inbounds nuw [16 x i8], ptr %13, i64 0, i64 %indvars.iv
  %17 = load i8, ptr %16, align 1
  %18 = uitofp i8 %17 to double
  %19 = fadd double %15, %18
  %indvars.iv.next = add nuw nsw i64 %indvars.iv, 1
  %exitcond.not = icmp eq i64 %indvars.iv.next, %wide.trip.count
  br i1 %exitcond.not, label %.loopexit, label %14, !llvm.loop !29

20:                                               ; preds = %3
  %21 = inttoptr i64 %0 to ptr
  %22 = load i8, ptr %21, align 1
  %23 = zext i8 %22 to i32
  %24 = shl nuw nsw i32 %23, 16
  %25 = getelementptr inbounds nuw i8, ptr %21, i64 1
  %26 = load i8, ptr %25, align 1
  %27 = zext i8 %26 to i32
  %28 = shl nuw nsw i32 %27, 8
  %29 = or disjoint i32 %28, %24
  %30 = getelementptr inbounds nuw i8, ptr %21, i64 2
  %31 = load i8, ptr %30, align 1
  %32 = zext i8 %31 to i32
  %33 = or disjoint i32 %29, %32
  %34 = uitofp nneg i32 %33 to double
  %35 = fmul double %34, 0x4170000000000000
  %36 = getelementptr inbounds nuw i8, ptr %21, i64 3
  %37 = load i8, ptr %36, align 1
  %38 = zext i8 %37 to i32
  %39 = shl nuw nsw i32 %38, 16
  %40 = getelementptr inbounds nuw i8, ptr %21, i64 4
  %41 = load i8, ptr %40, align 1
  %42 = zext i8 %41 to i32
  %43 = shl nuw nsw i32 %42, 8
  %44 = or disjoint i32 %43, %39
  %45 = getelementptr inbounds nuw i8, ptr %21, i64 5
  %46 = load i8, ptr %45, align 1
  %47 = zext i8 %46 to i32
  %48 = or disjoint i32 %44, %47
  %49 = uitofp nneg i32 %48 to double
  %50 = fadd double %35, %49
  br label %.loopexit

51:                                               ; preds = %3
  %52 = inttoptr i64 %0 to ptr
  %53 = load i8, ptr %52, align 1
  %54 = zext i8 %53 to i32
  %55 = shl nuw i32 %54, 24
  %56 = getelementptr inbounds nuw i8, ptr %52, i64 1
  %57 = load i8, ptr %56, align 1
  %58 = zext i8 %57 to i32
  %59 = shl nuw nsw i32 %58, 16
  %60 = or disjoint i32 %59, %55
  %61 = getelementptr inbounds nuw i8, ptr %52, i64 2
  %62 = load i8, ptr %61, align 1
  %63 = zext i8 %62 to i32
  %64 = shl nuw nsw i32 %63, 8
  %65 = or disjoint i32 %60, %64
  %66 = getelementptr inbounds nuw i8, ptr %52, i64 3
  %67 = load i8, ptr %66, align 1
  %68 = zext i8 %67 to i32
  %69 = or disjoint i32 %65, %68
  %70 = sitofp i32 %69 to double
  %71 = fmul double %70, 0x41F0000000000000
  %72 = getelementptr inbounds nuw i8, ptr %52, i64 4
  %73 = load i8, ptr %72, align 1
  %74 = zext i8 %73 to i32
  %75 = shl nuw i32 %74, 24
  %76 = getelementptr inbounds nuw i8, ptr %52, i64 5
  %77 = load i8, ptr %76, align 1
  %78 = zext i8 %77 to i32
  %79 = shl nuw nsw i32 %78, 16
  %80 = or disjoint i32 %79, %75
  %81 = getelementptr inbounds nuw i8, ptr %52, i64 6
  %82 = load i8, ptr %81, align 1
  %83 = zext i8 %82 to i32
  %84 = shl nuw nsw i32 %83, 8
  %85 = or disjoint i32 %80, %84
  %86 = getelementptr inbounds nuw i8, ptr %52, i64 7
  %87 = load i8, ptr %86, align 1
  %88 = zext i8 %87 to i32
  %89 = or disjoint i32 %85, %88
  %90 = sitofp i32 %89 to double
  %91 = fadd double %71, %90
  br label %.loopexit

92:                                               ; preds = %3
  store i8 1, ptr %2, align 1
  br label %.loopexit

.loopexit:                                        ; preds = %14, %92, %51, %20
  %.0 = phi double [ 0.000000e+00, %92 ], [ %91, %51 ], [ %50, %20 ], [ %19, %14 ]
  ret double %.0
}